Certificate:
    Data:
        Version: 3 (0x2)
        Serial Number:
            65:3a:db:44:14:59:dc:4e:ed:51:03:46:22:39:43:90
        Signature Algorithm: sha256WithRSAEncryption
        Issuer: CN=entyscoco
        Validity
            Not Before: Apr 18 06:38:16 2023 GMT
            Not After : Jul 21 06:38:16 2025 GMT
        Subject: CN=corentin
        Subject Public Key Info:
            Public Key Algorithm: rsaEncryption
                RSA Public-Key: (2048 bit)
                Modulus:
                    00:dc:30:bf:c1:fe:95:76:75:8a:02:9e:1c:fc:09:
                    3f:08:a2:1f:14:c0:74:2c:88:e8:c7:7c:6a:d1:19:
                    f0:bb:34:8c:ef:69:18:b3:c4:cc:e7:0e:84:b3:bc:
                    b2:a4:fd:c7:8a:ed:b9:55:2a:47:fd:ea:0e:ac:c9:
                    20:b6:63:71:73:18:4b:94:5f:f6:29:b7:aa:29:9b:
                    fb:1f:7f:a5:5d:eb:4a:7b:8e:e8:38:42:d9:c0:f0:
                    b0:07:76:a0:bf:62:73:00:67:1a:12:0c:89:30:a9:
                    cc:02:fe:f2:28:81:3f:ab:f5:18:ac:52:d2:79:66:
                    bf:93:e8:10:bd:a2:5e:bd:39:60:ef:a4:b5:ee:06:
                    79:59:ea:db:71:3b:a0:fa:27:9e:9f:e7:65:96:c6:
                    e1:f2:6d:4c:0e:93:9f:af:63:af:32:a6:9a:84:fb:
                    05:a1:e2:be:d9:46:33:7b:ee:11:d6:90:d2:c1:ac:
                    4d:88:78:d8:ce:d7:3c:c6:7b:63:e4:8d:09:86:51:
                    cb:79:a8:b9:49:a7:0f:05:2e:5f:87:81:37:cf:e8:
                    ba:11:a9:2b:e1:1e:23:2d:a7:d1:57:6c:d2:c2:fd:
                    08:1e:5d:eb:b4:8c:c1:7c:18:dc:bd:f0:c1:99:a4:
                    07:81:1c:2f:16:11:08:4d:b7:b7:c5:d6:07:f7:4a:
                    5b:23
                Exponent: 65537 (0x10001)
        X509v3 extensions:
            X509v3 Basic Constraints: 
                CA:FALSE
            X509v3 Subject Key Identifier: 
                17:2C:4D:F1:91:12:7C:4A:E9:7A:EB:25:65:2B:A7:B0:CB:28:26:5A
            X509v3 Authority Key Identifier: 
                keyid:3C:45:B6:CE:BE:BF:92:C4:83:05:18:DE:92:B1:D5:2C:EB:53:BF:2F
                DirName:/CN=entyscoco
                serial:67:5B:D2:D6:2B:C1:22:42:02:87:F1:4C:12:9F:B0:68:34:A1:B2:C2

            X509v3 Extended Key Usage: 
                TLS Web Client Authentication
            X509v3 Key Usage: 
                Digital Signature
    Signature Algorithm: sha256WithRSAEncryption
         62:e8:f4:bb:e4:6d:99:40:43:13:65:59:16:27:4c:7b:5b:3b:
         40:eb:3c:67:30:49:8c:d1:51:3a:ad:71:b5:08:32:f7:ed:35:
         be:73:ce:21:0b:9f:25:05:4b:1f:ba:ad:31:a7:be:86:25:a6:
         b9:b7:48:1a:ab:b3:44:1b:b2:5d:c7:69:43:b8:c1:2e:e1:d0:
         5f:d8:55:e2:be:3d:cc:dd:21:e1:57:b1:d8:bf:1f:f8:cb:4c:
         be:1b:be:d3:66:5e:16:f8:d6:c2:0b:4f:e9:14:41:e9:ba:45:
         22:a3:f0:ed:d8:85:de:03:e2:ae:54:da:71:4e:4d:bf:86:39:
         a0:60:d0:94:c5:04:5c:53:5a:5d:da:8a:ed:df:cc:31:33:96:
         c4:13:a3:53:62:20:a0:80:3a:fb:f6:5e:21:11:44:a8:9c:ac:
         14:1c:49:3a:29:a4:34:82:9c:fd:db:01:7b:d3:6a:8a:ab:57:
         60:43:cc:e1:7f:0e:8b:64:b9:dc:91:cf:55:74:7e:7c:0c:0d:
         36:c9:db:cb:8b:ba:b3:29:7b:4b:1a:ec:f4:8c:c3:cc:04:52:
         d8:c4:84:a0:c6:9b:0f:0f:10:3a:b8:8f:48:98:84:46:91:d2:
         af:60:c4:bc:19:d9:fb:c0:fa:1c:f9:7b:51:72:42:3b:2d:d2:
         9c:95:34:60
-----BEGIN CERTIFICATE-----
MIIDUjCCAjqgAwIBAgIQZTrbRBRZ3E7tUQNGIjlDkDANBgkqhkiG9w0BAQsFADAU
MRIwEAYDVQQDDAllbnR5c2NvY28wHhcNMjMwNDE4MDYzODE2WhcNMjUwNzIxMDYz
ODE2WjATMREwDwYDVQQDDAhjb3JlbnRpbjCCASIwDQYJKoZIhvcNAQEBBQADggEP
ADCCAQoCggEBANwwv8H+lXZ1igKeHPwJPwiiHxTAdCyI6Md8atEZ8Ls0jO9pGLPE
zOcOhLO8sqT9x4rtuVUqR/3qDqzJILZjcXMYS5Rf9im3qimb+x9/pV3rSnuO6DhC
2cDwsAd2oL9icwBnGhIMiTCpzAL+8iiBP6v1GKxS0nlmv5PoEL2iXr05YO+kte4G
eVnq23E7oPonnp/nZZbG4fJtTA6Tn69jrzKmmoT7BaHivtlGM3vuEdaQ0sGsTYh4
2M7XPMZ7Y+SNCYZRy3mouUmnDwUuX4eBN8/ouhGpK+EeIy2n0Vds0sL9CB5d67SM
wXwY3L3wwZmkB4EcLxYRCE23t8XWB/dKWyMCAwEAAaOBoDCBnTAJBgNVHRMEAjAA
MB0GA1UdDgQWBBQXLE3xkRJ8Sul66yVlK6ewyygmWjBPBgNVHSMESDBGgBQ8RbbO
vr+SxIMFGN6SsdUs61O/L6EYpBYwFDESMBAGA1UEAwwJZW50eXNjb2NvghRnW9LW
K8EiQgKH8UwSn7BoNKGywjATBgNVHSUEDDAKBggrBgEFBQcDAjALBgNVHQ8EBAMC
B4AwDQYJKoZIhvcNAQELBQADggEBAGLo9LvkbZlAQxNlWRYnTHtbO0DrPGcwSYzR
UTqtcbUIMvftNb5zziELnyUFSx+6rTGnvoYlprm3SBqrs0Qbsl3HaUO4wS7h0F/Y
VeK+PczdIeFXsdi/H/jLTL4bvtNmXhb41sILT+kUQem6RSKj8O3Yhd4D4q5U2nFO
Tb+GOaBg0JTFBFxTWl3aiu3fzDEzlsQTo1NiIKCAOvv2XiERRKicrBQcSToppDSC
nP3bAXvTaoqrV2BDzOF/DotkudyRz1V0fnwMDTbJ28uLurMpe0sa7PSMw8wEUtjE
hKDGmw8PEDq4j0iYhEaR0q9gxLwZ2fvA+hz5e1FyQjst0pyVNGA=
-----END CERTIFICATE-----
