Certificate:
    Data:
        Version: 3 (0x2)
        Serial Number:
            65:5a:af:ee:1c:5b:21:5c:69:00:f2:f2:12:82:fd:be
        Signature Algorithm: sha256WithRSAEncryption
        Issuer: CN=entyscoco
        Validity
            Not Before: Apr 17 13:30:07 2023 GMT
            Not After : Jul 20 13:30:07 2025 GMT
        Subject: CN=37.187.25.120
        Subject Public Key Info:
            Public Key Algorithm: rsaEncryption
                RSA Public-Key: (2048 bit)
                Modulus:
                    00:ac:2a:98:85:ff:c9:95:3f:0b:26:ed:ab:76:74:
                    ad:f3:ab:63:8e:31:ec:6d:53:a3:22:41:ee:d7:de:
                    39:85:de:4d:ff:5c:11:10:bd:e6:67:df:b4:73:38:
                    7d:cd:e2:8e:89:08:21:0f:93:ad:23:cb:c6:6e:00:
                    89:5a:b3:cd:14:20:ab:8a:0b:86:58:32:af:36:9b:
                    a8:a1:fd:3e:f4:17:fa:83:6c:eb:59:31:64:ac:1f:
                    14:d3:f9:a2:90:41:b0:17:aa:f6:1a:37:38:c5:79:
                    fc:b0:a7:97:a3:e1:b7:d3:19:42:93:e6:8b:cf:fe:
                    ae:fb:8b:8b:93:90:e2:3f:d3:db:5c:0c:2d:9f:ee:
                    dd:ed:59:a6:9f:48:24:74:1c:72:de:92:26:aa:fa:
                    98:db:d0:4a:68:62:1d:77:47:33:49:8d:67:6c:96:
                    e6:68:a0:8c:ec:00:65:63:a6:50:18:27:d4:3e:b9:
                    a8:8b:bd:ab:c8:16:1c:fe:8e:b8:fc:73:e4:19:0f:
                    df:ea:40:1d:c2:8e:35:65:bb:04:38:ad:aa:ad:be:
                    3e:44:25:a2:df:87:2a:8d:98:e2:eb:14:97:77:da:
                    78:af:e6:7b:99:46:15:5d:d7:ab:d5:f3:fe:38:19:
                    7e:13:5e:fc:0a:6b:86:20:c9:92:00:7a:1f:87:c4:
                    18:d9
                Exponent: 65537 (0x10001)
        X509v3 extensions:
            X509v3 Basic Constraints: 
                CA:FALSE
            X509v3 Subject Key Identifier: 
                61:05:E2:F6:16:85:C7:88:61:44:E7:CA:CB:72:33:AB:3F:D7:6E:84
            X509v3 Authority Key Identifier: 
                keyid:3C:45:B6:CE:BE:BF:92:C4:83:05:18:DE:92:B1:D5:2C:EB:53:BF:2F
                DirName:/CN=entyscoco
                serial:67:5B:D2:D6:2B:C1:22:42:02:87:F1:4C:12:9F:B0:68:34:A1:B2:C2

            X509v3 Extended Key Usage: 
                TLS Web Server Authentication
            X509v3 Key Usage: 
                Digital Signature, Key Encipherment
            X509v3 Subject Alternative Name: 
                IP Address:37.187.25.120
    Signature Algorithm: sha256WithRSAEncryption
         28:1c:27:0e:0a:83:d9:3f:36:0e:1e:ef:97:67:10:be:35:a7:
         b9:5d:c8:49:17:d1:1e:d7:94:31:fc:e6:4e:f0:e4:4c:c5:54:
         e4:5e:6d:67:0f:5d:84:dc:0e:d4:a7:69:44:29:0a:aa:8a:bd:
         91:72:75:25:d2:a4:a1:53:c8:f1:c5:fd:80:c5:f1:13:91:96:
         87:b0:3c:d0:7d:1e:5b:44:ef:77:d0:02:fc:e7:d9:7d:27:50:
         b9:9c:c6:e5:20:d2:d9:e4:af:6d:af:c7:e2:8d:91:9c:a9:08:
         21:77:43:e7:4a:75:50:91:a1:57:ae:ed:02:1d:ce:77:b7:ac:
         00:90:53:3b:2d:29:8f:af:6a:bf:8d:0d:f9:28:1c:77:25:d6:
         fb:45:c9:f0:c9:15:f7:57:01:5d:df:5d:ab:c2:10:54:c5:84:
         40:0d:6b:72:ad:4c:6a:e6:c6:c2:f8:03:0b:19:de:5e:8d:47:
         e8:4e:e4:bc:96:31:cc:4e:22:5f:f9:ef:0d:b8:91:79:32:46:
         01:3e:f6:74:e3:2a:3b:78:45:09:fc:c2:e1:7f:07:40:95:c2:
         96:2e:c2:a7:ea:6b:ad:47:4d:7a:60:e9:f4:84:81:3c:a8:f5:
         07:07:d5:c2:34:94:8f:8e:79:a1:b5:71:7e:d5:47:85:ca:b6:
         8b:cf:f8:cd
-----BEGIN CERTIFICATE-----
MIIDaDCCAlCgAwIBAgIQZVqv7hxbIVxpAPLyEoL9vjANBgkqhkiG9w0BAQsFADAU
MRIwEAYDVQQDDAllbnR5c2NvY28wHhcNMjMwNDE3MTMzMDA3WhcNMjUwNzIwMTMz
MDA3WjAYMRYwFAYDVQQDDA0zNy4xODcuMjUuMTIwMIIBIjANBgkqhkiG9w0BAQEF
AAOCAQ8AMIIBCgKCAQEArCqYhf/JlT8LJu2rdnSt86tjjjHsbVOjIkHu1945hd5N
/1wREL3mZ9+0czh9zeKOiQghD5OtI8vGbgCJWrPNFCCriguGWDKvNpuoof0+9Bf6
g2zrWTFkrB8U0/mikEGwF6r2Gjc4xXn8sKeXo+G30xlCk+aLz/6u+4uLk5DiP9Pb
XAwtn+7d7Vmmn0gkdBxy3pImqvqY29BKaGIdd0czSY1nbJbmaKCM7ABlY6ZQGCfU
Prmoi72ryBYc/o64/HPkGQ/f6kAdwo41ZbsEOK2qrb4+RCWi34cqjZji6xSXd9p4
r+Z7mUYVXder1fP+OBl+E178CmuGIMmSAHofh8QY2QIDAQABo4GxMIGuMAkGA1Ud
EwQCMAAwHQYDVR0OBBYEFGEF4vYWhceIYUTnystyM6s/126EME8GA1UdIwRIMEaA
FDxFts6+v5LEgwUY3pKx1SzrU78voRikFjAUMRIwEAYDVQQDDAllbnR5c2NvY2+C
FGdb0tYrwSJCAofxTBKfsGg0obLCMBMGA1UdJQQMMAoGCCsGAQUFBwMBMAsGA1Ud
DwQEAwIFoDAPBgNVHREECDAGhwQluxl4MA0GCSqGSIb3DQEBCwUAA4IBAQAoHCcO
CoPZPzYOHu+XZxC+Nae5XchJF9Ee15Qx/OZO8ORMxVTkXm1nD12E3A7Up2lEKQqq
ir2RcnUl0qShU8jxxf2AxfETkZaHsDzQfR5bRO930AL859l9J1C5nMblINLZ5K9t
r8fijZGcqQghd0PnSnVQkaFXru0CHc53t6wAkFM7LSmPr2q/jQ35KBx3Jdb7Rcnw
yRX3VwFd312rwhBUxYRADWtyrUxq5sbC+AMLGd5ejUfoTuS8ljHMTiJf+e8NuJF5
MkYBPvZ04yo7eEUJ/MLhfwdAlcKWLsKn6mutR016YOn0hIE8qPUHB9XCNJSPjnmh
tXF+1UeFyraLz/jN
-----END CERTIFICATE-----
