Certificate:
    Data:
        Version: 3 (0x2)
        Serial Number:
            f3:a0:1f:8a:34:44:06:a0:94:21:f6:4a:b6:13:1e:6d
        Signature Algorithm: sha256WithRSAEncryption
        Issuer: CN=entyscoco
        Validity
            Not Before: Apr 18 06:56:13 2023 GMT
            Not After : Jul 21 06:56:13 2025 GMT
        Subject: CN=corentin
        Subject Public Key Info:
            Public Key Algorithm: rsaEncryption
                RSA Public-Key: (2048 bit)
                Modulus:
                    00:a6:c3:fd:20:a5:85:d3:2b:7c:7f:e7:d7:11:a2:
                    ba:ee:d1:91:ee:14:ee:8f:c7:44:ac:fc:55:59:45:
                    2a:2d:6c:6c:30:4e:94:69:d9:12:8a:7e:7c:42:04:
                    96:85:20:b3:94:fd:83:d3:11:b9:4f:54:2c:1c:eb:
                    41:b8:64:2f:c5:71:8e:d5:03:71:8a:4c:c0:48:26:
                    af:f1:40:11:fc:cd:ef:92:70:6d:4a:c0:71:41:65:
                    e0:6b:da:c3:31:f3:ae:8b:3b:6c:b1:43:a4:72:d7:
                    eb:48:1b:3b:14:cd:f6:1b:d7:08:cf:36:a2:d3:46:
                    75:43:aa:42:04:f7:fa:7d:d9:3a:46:32:a7:68:f9:
                    88:47:d8:6f:80:32:63:4e:f6:81:91:5b:8d:92:e9:
                    f7:bf:f8:fa:02:d6:f2:9b:c9:9f:4f:f3:30:96:c7:
                    68:d9:f8:f7:40:1b:59:80:c5:d3:51:19:c4:af:79:
                    76:87:ee:62:6b:ab:b5:71:53:15:16:1b:7a:ac:10:
                    42:39:1f:c3:8d:79:c4:e9:bf:c7:54:cd:d7:d8:99:
                    f8:c1:7d:3e:c0:79:ff:a6:46:48:b9:9f:df:62:92:
                    d7:61:69:4d:7c:59:e0:81:5e:17:76:39:9d:84:39:
                    b7:f6:8e:99:a2:8b:12:f7:77:75:2d:de:92:07:07:
                    ac:fb
                Exponent: 65537 (0x10001)
        X509v3 extensions:
            X509v3 Basic Constraints: 
                CA:FALSE
            X509v3 Subject Key Identifier: 
                29:DB:DB:AB:EE:88:65:4D:5C:3C:EA:61:4D:13:E3:BF:20:67:F1:B1
            X509v3 Authority Key Identifier: 
                keyid:3C:45:B6:CE:BE:BF:92:C4:83:05:18:DE:92:B1:D5:2C:EB:53:BF:2F
                DirName:/CN=entyscoco
                serial:67:5B:D2:D6:2B:C1:22:42:02:87:F1:4C:12:9F:B0:68:34:A1:B2:C2

            X509v3 Extended Key Usage: 
                TLS Web Client Authentication
            X509v3 Key Usage: 
                Digital Signature
    Signature Algorithm: sha256WithRSAEncryption
         9e:af:a5:d0:57:41:6a:77:28:64:64:5a:78:f6:a7:61:da:ca:
         ce:82:df:6b:08:2c:d2:c7:3b:14:ba:7b:46:6d:ac:8d:db:dc:
         77:2d:9c:fc:4a:11:80:77:5e:43:cd:5e:92:fb:8c:0a:a9:a3:
         3c:58:a8:16:36:b0:b8:f1:c0:07:4e:9a:50:15:76:84:65:a0:
         9b:86:5d:15:84:0b:5b:e0:5a:c3:ad:3c:4b:a7:37:f8:d7:1b:
         49:76:a0:16:4d:e6:05:8c:f9:10:93:aa:37:6f:97:23:db:3a:
         86:97:96:cb:86:4d:a4:21:70:5f:72:cd:65:d6:46:1d:45:42:
         33:72:f7:05:15:f3:f4:bc:02:39:4b:8e:93:f2:f9:53:b5:44:
         99:d0:96:88:d4:04:8d:3c:3d:55:ee:c5:f9:d4:3e:3a:7d:10:
         77:2e:65:0d:7d:8f:23:1f:6e:77:ce:0a:b1:b0:3d:b8:99:d5:
         49:ed:7d:0c:e3:ce:f6:1c:34:a1:11:db:07:73:ca:65:cf:62:
         6e:84:53:9b:aa:c1:a0:b7:65:4b:ec:5a:5f:d1:5c:e2:4e:e9:
         0a:a5:db:fd:6a:9c:5c:28:5b:b2:68:dc:81:a6:06:70:0d:15:
         e1:41:16:5a:52:41:8b:5b:ed:7e:30:80:01:10:48:fc:0e:70:
         da:a2:e5:40
-----BEGIN CERTIFICATE-----
MIIDUzCCAjugAwIBAgIRAPOgH4o0RAaglCH2SrYTHm0wDQYJKoZIhvcNAQELBQAw
FDESMBAGA1UEAwwJZW50eXNjb2NvMB4XDTIzMDQxODA2NTYxM1oXDTI1MDcyMTA2
NTYxM1owEzERMA8GA1UEAwwIY29yZW50aW4wggEiMA0GCSqGSIb3DQEBAQUAA4IB
DwAwggEKAoIBAQCmw/0gpYXTK3x/59cRorru0ZHuFO6Px0Ss/FVZRSotbGwwTpRp
2RKKfnxCBJaFILOU/YPTEblPVCwc60G4ZC/FcY7VA3GKTMBIJq/xQBH8ze+ScG1K
wHFBZeBr2sMx866LO2yxQ6Ry1+tIGzsUzfYb1wjPNqLTRnVDqkIE9/p92TpGMqdo
+YhH2G+AMmNO9oGRW42S6fe/+PoC1vKbyZ9P8zCWx2jZ+PdAG1mAxdNRGcSveXaH
7mJrq7VxUxUWG3qsEEI5H8ONecTpv8dUzdfYmfjBfT7Aef+mRki5n99iktdhaU18
WeCBXhd2OZ2EObf2jpmiixL3d3Ut3pIHB6z7AgMBAAGjgaAwgZ0wCQYDVR0TBAIw
ADAdBgNVHQ4EFgQUKdvbq+6IZU1cPOphTRPjvyBn8bEwTwYDVR0jBEgwRoAUPEW2
zr6/ksSDBRjekrHVLOtTvy+hGKQWMBQxEjAQBgNVBAMMCWVudHlzY29jb4IUZ1vS
1ivBIkICh/FMEp+waDShssIwEwYDVR0lBAwwCgYIKwYBBQUHAwIwCwYDVR0PBAQD
AgeAMA0GCSqGSIb3DQEBCwUAA4IBAQCer6XQV0FqdyhkZFp49qdh2srOgt9rCCzS
xzsUuntGbayN29x3LZz8ShGAd15DzV6S+4wKqaM8WKgWNrC48cAHTppQFXaEZaCb
hl0VhAtb4FrDrTxLpzf41xtJdqAWTeYFjPkQk6o3b5cj2zqGl5bLhk2kIXBfcs1l
1kYdRUIzcvcFFfP0vAI5S46T8vlTtUSZ0JaI1ASNPD1V7sX51D46fRB3LmUNfY8j
H253zgqxsD24mdVJ7X0M4872HDShEdsHc8plz2JuhFObqsGgt2VL7Fpf0VziTukK
pdv9apxcKFuyaNyBpgZwDRXhQRZaUkGLW+1+MIABEEj8DnDaouVA
-----END CERTIFICATE-----
